target datalayout = "e-m:e-p270:32:32-p271:32:32-p272:64:64-i64:64-i128:128-f80:128-n8:16:32:64-S128"
target triple = "x86_64-pc-linux-gnu"

@.str.7 = private unnamed_addr constant [40 x i8] c"../openssl/test/namemap_internal_test.c\00", align 1
@.str.8 = private unnamed_addr constant [25 x i8] c"ossl_namemap_empty(NULL)\00", align 1
@.str.9 = private unnamed_addr constant [2 x i8] c"1\00", align 1
@.str.10 = private unnamed_addr constant [28 x i8] c"nm = ossl_namemap_new(NULL)\00", align 1
@.str.11 = private unnamed_addr constant [23 x i8] c"ossl_namemap_empty(nm)\00", align 1
@.str.12 = private unnamed_addr constant [36 x i8] c"ossl_namemap_add_name(nm, 0, NAME1)\00", align 1
@.str.13 = private unnamed_addr constant [2 x i8] c"0\00", align 1
@.str.14 = private unnamed_addr constant [6 x i8] c"name1\00", align 1

; Function Attrs: nounwind uwtable
define internal i32 @test_namemap_empty() #0 {
  %1 = alloca ptr, align 8
  %2 = alloca i32, align 4
  call void @llvm.lifetime.start.p0(i64 8, ptr %1) #3
  store ptr null, ptr %1, align 8, !tbaa !4
  call void @llvm.lifetime.start.p0(i64 4, ptr %2) #3
  %3 = call i32 @ossl_namemap_empty(ptr noundef null)
  %4 = call i32 @test_int_eq(ptr noundef @.str.7, i32 noundef 24, ptr noundef @.str.8, ptr noundef @.str.9, i32 noundef %3, i32 noundef 1)
  %5 = icmp ne i32 %4, 0
  br i1 %5, label %6, label %25

6:                                                ; preds = %0
  %7 = call ptr @ossl_namemap_new(ptr noundef null)
  store ptr %7, ptr %1, align 8, !tbaa !4
  %8 = call i32 @test_ptr(ptr noundef @.str.7, i32 noundef 25, ptr noundef @.str.10, ptr noundef %7)
  %9 = icmp ne i32 %8, 0
  br i1 %9, label %10, label %25

10:                                               ; preds = %6
  %11 = load ptr, ptr %1, align 8, !tbaa !4
  %12 = call i32 @ossl_namemap_empty(ptr noundef %11)
  %13 = call i32 @test_int_eq(ptr noundef @.str.7, i32 noundef 26, ptr noundef @.str.11, ptr noundef @.str.9, i32 noundef %12, i32 noundef 1)
  %14 = icmp ne i32 %13, 0
  br i1 %14, label %15, label %25

15:                                               ; preds = %10
  %16 = load ptr, ptr %1, align 8, !tbaa !4
  %17 = call i32 @ossl_namemap_add_name(ptr noundef %16, i32 noundef 0, ptr noundef @.str.14)
  %18 = call i32 @test_int_ne(ptr noundef @.str.7, i32 noundef 27, ptr noundef @.str.12, ptr noundef @.str.13, i32 noundef %17, i32 noundef 0)
  %19 = icmp ne i32 %18, 0
  br i1 %19, label %20, label %25

20:                                               ; preds = %15
  %21 = load ptr, ptr %1, align 8, !tbaa !4
  %22 = call i32 @ossl_namemap_empty(ptr noundef %21)
  %23 = call i32 @test_int_eq(ptr noundef @.str.7, i32 noundef 28, ptr noundef @.str.11, ptr noundef @.str.13, i32 noundef %22, i32 noundef 0)
  %24 = icmp ne i32 %23, 0
  br label %25

25:                                               ; preds = %20, %15, %10, %6, %0
  %26 = phi i1 [ false, %15 ], [ false, %10 ], [ false, %6 ], [ false, %0 ], [ %24, %20 ]
  %27 = zext i1 %26 to i32
  store i32 %27, ptr %2, align 4, !tbaa !9
  %28 = load ptr, ptr %1, align 8, !tbaa !4
  call void @ossl_namemap_free(ptr noundef %28)
  %29 = load i32, ptr %2, align 4, !tbaa !9
  call void @llvm.lifetime.end.p0(i64 4, ptr %2) #3
  call void @llvm.lifetime.end.p0(i64 8, ptr %1) #3
  ret i32 %29
}