; Function Attrs: nounwind uwtable
define internal range(i32 0, 2) i32 @test_namemap_empty() #0 {
  %1 = tail call i32 @ossl_namemap_empty(ptr noundef null) #2
  %2 = tail call i32 @test_int_eq(ptr noundef nonnull @.str.7, i32 noundef 24, ptr noundef nonnull @.str.8, ptr noundef nonnull @.str.9, i32 noundef %1, i32 noundef 1) #2
  %.not = icmp eq i32 %2, 0
  br i1 %.not, label %17, label %3

3:                                                ; preds = %0
  %4 = tail call ptr @ossl_namemap_new(ptr noundef null) #2
  %5 = tail call i32 @test_ptr(ptr noundef nonnull @.str.7, i32 noundef 25, ptr noundef nonnull @.str.10, ptr noundef %4) #2
  %.not4 = icmp eq i32 %5, 0
  br i1 %.not4, label %17, label %6

6:                                                ; preds = %3
  %7 = tail call i32 @ossl_namemap_empty(ptr noundef %4) #2
  %8 = tail call i32 @test_int_eq(ptr noundef nonnull @.str.7, i32 noundef 26, ptr noundef nonnull @.str.11, ptr noundef nonnull @.str.9, i32 noundef %7, i32 noundef 1) #2
  %.not5 = icmp eq i32 %8, 0
  br i1 %.not5, label %17, label %9

9:                                                ; preds = %6
  %10 = tail call i32 @ossl_namemap_add_name(ptr noundef %4, i32 noundef 0, ptr noundef nonnull @.str.14) #2
  %11 = tail call i32 @test_int_ne(ptr noundef nonnull @.str.7, i32 noundef 27, ptr noundef nonnull @.str.12, ptr noundef nonnull @.str.13, i32 noundef %10, i32 noundef 0) #2
  %.not6 = icmp eq i32 %11, 0
  br i1 %.not6, label %17, label %12

12:                                               ; preds = %9
  %13 = tail call i32 @ossl_namemap_empty(ptr noundef %4) #2
  %14 = tail call i32 @test_int_eq(ptr noundef nonnull @.str.7, i32 noundef 28, ptr noundef nonnull @.str.11, ptr noundef nonnull @.str.13, i32 noundef %13, i32 noundef 0) #2
  %15 = icmp ne i32 %14, 0
  %16 = zext i1 %15 to i32
  br label %17

17:                                               ; preds = %12, %9, %6, %3, %0
  %.0 = phi ptr [ %4, %12 ], [ %4, %9 ], [ %4, %6 ], [ %4, %3 ], [ null, %0 ]
  %18 = phi i32 [ %16, %12 ], [ 0, %9 ], [ 0, %6 ], [ 0, %3 ], [ 0, %0 ]
  tail call void @ossl_namemap_free(ptr noundef %.0) #2
  ret i32 %18
}